#include <math.h>
#include <stdio.h>
#include <stdlib.h>
#include <string.h>
#include <iostream>
using namespace std;

int main()
{
int a[200][200];
int *p=a[0];
int m,n;
cin>>m>>n;
for(int i=0;i<m;i++)
for(int j=0;j<n;j++)
{
cin>>*(p+i*n+j);
}
for(int i=0;i<m+n-1;i++)
{
int flag=1;
int x=0;
int y=i;
while(flag==1)
{
if(y<n&&x>=0)cout<<*(p+x*n+y)<<endl;
x++;
y--;
if(y<0||x>m-1)flag=0;
}
}
}
